target datalayout = "e-m:e-p270:32:32-p271:32:32-p272:64:64-i64:64-i128:128-f80:128-n8:16:32:64-S128"
target triple = "x86_64-pc-linux-gnu"

%struct.png_color_8_struct = type { i8, i8, i8, i8, i8 }
%struct.png_color_16_struct = type { i8, i16, i16, i16, i16 }
%struct.png_colorspace = type { i32, %struct.png_xy, %struct.png_XYZ, i16, i16 }
%struct.png_xy = type { i32, i32, i32, i32, i32, i32, i32, i32 }
%struct.png_XYZ = type { i32, i32, i32, i32, i32, i32, i32, i32, i32 }
%struct.png_info_def = type { i32, i32, i32, i64, ptr, i16, i16, i8, i8, i8, i8, i8, i8, i8, i8, [8 x i8], %struct.png_colorspace, ptr, ptr, i32, i32, i32, ptr, %struct.png_time_struct, %struct.png_color_8_struct, ptr, %struct.png_color_16_struct, %struct.png_color_16_struct, i32, i32, i8, i32, i32, i8, i32, ptr, ptr, ptr, ptr, i32, i32, ptr, ptr, i8, i8, i32, ptr, i32, ptr, i32, i8, ptr, ptr, ptr }
%struct.png_time_struct = type { i16, i8, i8, i8, i8, i8 }

; Function Attrs: nounwind uwtable
define i32 @png_get_pCAL(ptr noalias noundef %0, ptr noalias noundef %1, ptr noundef %2, ptr noundef %3, ptr noundef %4, ptr noundef %5, ptr noundef %6, ptr noundef %7, ptr noundef %8) #0 {
  %10 = alloca i32, align 4
  %11 = alloca ptr, align 8
  %12 = alloca ptr, align 8
  %13 = alloca ptr, align 8
  %14 = alloca ptr, align 8
  %15 = alloca ptr, align 8
  %16 = alloca ptr, align 8
  %17 = alloca ptr, align 8
  %18 = alloca ptr, align 8
  %19 = alloca ptr, align 8
  store ptr %0, ptr %11, align 8
  store ptr %1, ptr %12, align 8
  store ptr %2, ptr %13, align 8
  store ptr %3, ptr %14, align 8
  store ptr %4, ptr %15, align 8
  store ptr %5, ptr %16, align 8
  store ptr %6, ptr %17, align 8
  store ptr %7, ptr %18, align 8
  store ptr %8, ptr %19, align 8
  %20 = load ptr, ptr %11, align 8
  %21 = icmp ne ptr %20, null
  br i1 %21, label %22, label %83

22:                                               ; preds = %9
  %23 = load ptr, ptr %12, align 8
  %24 = icmp ne ptr %23, null
  br i1 %24, label %25, label %83

25:                                               ; preds = %22
  %26 = load ptr, ptr %12, align 8
  %27 = getelementptr inbounds %struct.png_info_def, ptr %26, i32 0, i32 2
  %28 = load i32, ptr %27, align 8
  %29 = and i32 %28, 1024
  %30 = icmp ne i32 %29, 0
  br i1 %30, label %31, label %83

31:                                               ; preds = %25
  %32 = load ptr, ptr %13, align 8
  %33 = icmp ne ptr %32, null
  br i1 %33, label %34, label %83

34:                                               ; preds = %31
  %35 = load ptr, ptr %14, align 8
  %36 = icmp ne ptr %35, null
  br i1 %36, label %37, label %83

37:                                               ; preds = %34
  %38 = load ptr, ptr %15, align 8
  %39 = icmp ne ptr %38, null
  br i1 %39, label %40, label %83

40:                                               ; preds = %37
  %41 = load ptr, ptr %16, align 8
  %42 = icmp ne ptr %41, null
  br i1 %42, label %43, label %83

43:                                               ; preds = %40
  %44 = load ptr, ptr %17, align 8
  %45 = icmp ne ptr %44, null
  br i1 %45, label %46, label %83

46:                                               ; preds = %43
  %47 = load ptr, ptr %18, align 8
  %48 = icmp ne ptr %47, null
  br i1 %48, label %49, label %83

49:                                               ; preds = %46
  %50 = load ptr, ptr %19, align 8
  %51 = icmp ne ptr %50, null
  br i1 %51, label %52, label %83

52:                                               ; preds = %49
  %53 = load ptr, ptr %12, align 8
  %54 = getelementptr inbounds %struct.png_info_def, ptr %53, i32 0, i32 38
  %55 = load ptr, ptr %54, align 8
  %56 = load ptr, ptr %13, align 8
  store ptr %55, ptr %56, align 8
  %57 = load ptr, ptr %12, align 8
  %58 = getelementptr inbounds %struct.png_info_def, ptr %57, i32 0, i32 39
  %59 = load i32, ptr %58, align 8
  %60 = load ptr, ptr %14, align 8
  store i32 %59, ptr %60, align 4
  %61 = load ptr, ptr %12, align 8
  %62 = getelementptr inbounds %struct.png_info_def, ptr %61, i32 0, i32 40
  %63 = load i32, ptr %62, align 4
  %64 = load ptr, ptr %15, align 8
  store i32 %63, ptr %64, align 4
  %65 = load ptr, ptr %12, align 8
  %66 = getelementptr inbounds %struct.png_info_def, ptr %65, i32 0, i32 43
  %67 = load i8, ptr %66, align 8
  %68 = zext i8 %67 to i32
  %69 = load ptr, ptr %16, align 8
  store i32 %68, ptr %69, align 4
  %70 = load ptr, ptr %12, align 8
  %71 = getelementptr inbounds %struct.png_info_def, ptr %70, i32 0, i32 44
  %72 = load i8, ptr %71, align 1
  %73 = zext i8 %72 to i32
  %74 = load ptr, ptr %17, align 8
  store i32 %73, ptr %74, align 4
  %75 = load ptr, ptr %12, align 8
  %76 = getelementptr inbounds %struct.png_info_def, ptr %75, i32 0, i32 41
  %77 = load ptr, ptr %76, align 8
  %78 = load ptr, ptr %18, align 8
  store ptr %77, ptr %78, align 8
  %79 = load ptr, ptr %12, align 8
  %80 = getelementptr inbounds %struct.png_info_def, ptr %79, i32 0, i32 42
  %81 = load ptr, ptr %80, align 8
  %82 = load ptr, ptr %19, align 8
  store ptr %81, ptr %82, align 8
  store i32 1024, ptr %10, align 4
  br label %84

83:                                               ; preds = %49, %46, %43, %40, %37, %34, %31, %25, %22, %9
  store i32 0, ptr %10, align 4
  br label %84

84:                                               ; preds = %83, %52
  %85 = load i32, ptr %10, align 4
  ret i32 %85
}