; Function Attrs: mustprogress nofree norecurse nosync nounwind willreturn memory(argmem: readwrite) uwtable
define range(i32 0, 1025) i32 @png_get_pCAL(ptr noalias noundef readnone %0, ptr noalias noundef readonly %1, ptr noundef writeonly %2, ptr noundef writeonly %3, ptr noundef writeonly %4, ptr noundef writeonly %5, ptr noundef writeonly %6, ptr noundef writeonly %7, ptr noundef writeonly %8) local_unnamed_addr #3 {
  %10 = icmp ne ptr %0, null
  %11 = icmp ne ptr %1, null
  %or.cond = and i1 %10, %11
  br i1 %or.cond, label %12, label %44

12:                                               ; preds = %9
  %13 = getelementptr inbounds i8, ptr %1, i64 8
  %14 = load i32, ptr %13, align 8
  %15 = and i32 %14, 1024
  %16 = icmp ne i32 %15, 0
  %17 = insertelement <4 x ptr> poison, ptr %2, i64 0
  %18 = insertelement <4 x ptr> %17, ptr %3, i64 1
  %19 = insertelement <4 x ptr> %18, ptr %4, i64 2
  %20 = insertelement <4 x ptr> %19, ptr %5, i64 3
  %21 = icmp ne ptr %6, null
  %22 = icmp ne ptr %7, null
  %23 = icmp ne ptr %8, null
  %24 = icmp eq <4 x ptr> %20, zeroinitializer
  %25 = bitcast <4 x i1> %24 to i4
  %26 = icmp eq i4 %25, 0
  %op.rdx = and i1 %26, %21
  %op.rdx40 = and i1 %22, %23
  %op.rdx41 = and i1 %op.rdx, %op.rdx40
  %op.rdx42 = and i1 %op.rdx41, %16
  br i1 %op.rdx42, label %27, label %44

27:                                               ; preds = %12
  %28 = getelementptr inbounds i8, ptr %1, i64 264
  %29 = load ptr, ptr %28, align 8
  store ptr %29, ptr %2, align 8
  %30 = getelementptr inbounds i8, ptr %1, i64 272
  %31 = load i32, ptr %30, align 8
  store i32 %31, ptr %3, align 4
  %32 = getelementptr inbounds i8, ptr %1, i64 276
  %33 = load i32, ptr %32, align 4
  store i32 %33, ptr %4, align 4
  %34 = getelementptr inbounds i8, ptr %1, i64 296
  %35 = load i8, ptr %34, align 8
  %36 = zext i8 %35 to i32
  store i32 %36, ptr %5, align 4
  %37 = getelementptr inbounds i8, ptr %1, i64 297
  %38 = load i8, ptr %37, align 1
  %39 = zext i8 %38 to i32
  store i32 %39, ptr %6, align 4
  %40 = getelementptr inbounds i8, ptr %1, i64 280
  %41 = load ptr, ptr %40, align 8
  store ptr %41, ptr %7, align 8
  %42 = getelementptr inbounds i8, ptr %1, i64 288
  %43 = load ptr, ptr %42, align 8
  store ptr %43, ptr %8, align 8
  br label %44

44:                                               ; preds = %9, %12, %27
  %.0 = phi i32 [ 1024, %27 ], [ 0, %12 ], [ 0, %9 ]
  ret i32 %.0
}